target datalayout = "e-m:e-p270:32:32-p271:32:32-p272:64:64-i64:64-i128:128-f80:128-n8:16:32:64-S128"
target triple = "x86_64-pc-linux-gnu"

%struct._proto_node = type { ptr, ptr, ptr, ptr, ptr, ptr }
%struct.field_info = type { ptr, i32, i32, i32, i32, i32, i32, ptr, ptr, ptr, i32, i32 }

@hf_ctdb_key = internal global i32 0, align 4
@hf_ctdb_keyhash = internal global i32 0, align 4
@ett_ctdb_key = internal global i32 0, align 4
@.str.252 = private unnamed_addr constant [15 x i8] c" (Hash:0x%08x)\00", align 1

; Function Attrs: nounwind uwtable
define internal void @proto_item_set_generated(ptr noundef %0) #0 {
  %2 = alloca ptr, align 8
  store ptr %0, ptr %2, align 8
  %3 = load ptr, ptr %2, align 8
  %4 = icmp ne ptr %3, null
  br i1 %4, label %5, label %24

5:                                                ; preds = %1
  br label %6

6:                                                ; preds = %5
  %7 = load ptr, ptr %2, align 8
  %8 = getelementptr inbounds %struct._proto_node, ptr %7, i32 0, i32 4
  %9 = load ptr, ptr %8, align 8
  %10 = icmp ne ptr %9, null
  br i1 %10, label %11, label %22

11:                                               ; preds = %6
  %12 = load ptr, ptr %2, align 8
  %13 = getelementptr inbounds %struct._proto_node, ptr %12, i32 0, i32 4
  %14 = load ptr, ptr %13, align 8
  %15 = getelementptr inbounds %struct.field_info, ptr %14, i32 0, i32 6
  %16 = load i32, ptr %15, align 4
  %17 = or i32 %16, 2
  %18 = load ptr, ptr %2, align 8
  %19 = getelementptr inbounds %struct._proto_node, ptr %18, i32 0, i32 4
  %20 = load ptr, ptr %19, align 8
  %21 = getelementptr inbounds %struct.field_info, ptr %20, i32 0, i32 6
  store i32 %17, ptr %21, align 4
  br label %22

22:                                               ; preds = %11, %6
  br label %23

23:                                               ; preds = %22
  br label %24

24:                                               ; preds = %23, %1
  ret void
}

; Function Attrs: nounwind uwtable
define internal i32 @ctdb_hash(ptr noundef %0, i32 noundef %1, i32 noundef %2) #0 {
  %4 = alloca ptr, align 8
  %5 = alloca i32, align 4
  %6 = alloca i32, align 4
  %7 = alloca i32, align 4
  %8 = alloca i32, align 4
  store ptr %0, ptr %4, align 8
  store i32 %1, ptr %5, align 4
  store i32 %2, ptr %6, align 4
  %9 = load i32, ptr %6, align 4
  %10 = mul i32 596579247, %9
  store i32 %10, ptr %7, align 4
  store i32 0, ptr %8, align 4
  br label %11

11:                                               ; preds = %28, %3
  %12 = load i32, ptr %8, align 4
  %13 = load i32, ptr %6, align 4
  %14 = icmp ult i32 %12, %13
  br i1 %14, label %15, label %31

15:                                               ; preds = %11
  %16 = load i32, ptr %7, align 4
  %17 = load ptr, ptr %4, align 8
  %18 = load i32, ptr %5, align 4
  %19 = load i32, ptr %8, align 4
  %20 = add i32 %18, %19
  %21 = call zeroext i8 @tvb_get_guint8(ptr noundef %17, i32 noundef %20)
  %22 = zext i8 %21 to i32
  %23 = load i32, ptr %8, align 4
  %24 = mul i32 %23, 5
  %25 = urem i32 %24, 24
  %26 = shl i32 %22, %25
  %27 = add i32 %16, %26
  store i32 %27, ptr %7, align 4
  br label %28

28:                                               ; preds = %15
  %29 = load i32, ptr %8, align 4
  %30 = add i32 %29, 1
  store i32 %30, ptr %8, align 4
  br label %11, !llvm.loop !4

31:                                               ; preds = %11
  %32 = load i32, ptr %7, align 4
  %33 = mul i32 1103515243, %32
  %34 = add i32 %33, 12345
  ret i32 %34
}

; Function Attrs: nounwind uwtable
define internal i32 @dissect_ctdb_key(ptr noundef %0, ptr noundef %1, i32 noundef %2, i32 noundef %3, ptr noundef %4, i32 noundef %5) #0 {
  %7 = alloca ptr, align 8
  %8 = alloca ptr, align 8
  %9 = alloca i32, align 4
  %10 = alloca i32, align 4
  %11 = alloca ptr, align 8
  %12 = alloca i32, align 4
  %13 = alloca i32, align 4
  %14 = alloca ptr, align 8
  %15 = alloca ptr, align 8
  store ptr %0, ptr %7, align 8
  store ptr %1, ptr %8, align 8
  store i32 %2, ptr %9, align 4
  store i32 %3, ptr %10, align 4
  store ptr %4, ptr %11, align 8
  store i32 %5, ptr %12, align 4
  store ptr null, ptr %14, align 8
  store ptr null, ptr %15, align 8
  %16 = load ptr, ptr %7, align 8
  %17 = icmp ne ptr %16, null
  br i1 %17, label %18, label %29

18:                                               ; preds = %6
  %19 = load ptr, ptr %7, align 8
  %20 = load i32, ptr @hf_ctdb_key, align 4
  %21 = load ptr, ptr %8, align 8
  %22 = load i32, ptr %9, align 4
  %23 = load i32, ptr %10, align 4
  %24 = load i32, ptr %12, align 4
  %25 = call ptr @proto_tree_add_item(ptr noundef %19, i32 noundef %20, ptr noundef %21, i32 noundef %22, i32 noundef %23, i32 noundef %24)
  store ptr %25, ptr %14, align 8
  %26 = load ptr, ptr %14, align 8
  %27 = load i32, ptr @ett_ctdb_key, align 4
  %28 = call ptr @proto_item_add_subtree(ptr noundef %26, i32 noundef %27)
  store ptr %28, ptr %15, align 8
  br label %29

29:                                               ; preds = %18, %6
  %30 = load ptr, ptr %8, align 8
  %31 = load i32, ptr %9, align 4
  %32 = load i32, ptr %10, align 4
  %33 = call i32 @ctdb_hash(ptr noundef %30, i32 noundef %31, i32 noundef %32)
  store i32 %33, ptr %13, align 4
  %34 = load ptr, ptr %14, align 8
  %35 = load i32, ptr %13, align 4
  call void (ptr, ptr, ...) @proto_item_append_text(ptr noundef %34, ptr noundef @.str.252, i32 noundef %35)
  %36 = load ptr, ptr %15, align 8
  %37 = load i32, ptr @hf_ctdb_keyhash, align 4
  %38 = load ptr, ptr %8, align 8
  %39 = load i32, ptr %13, align 4
  %40 = call ptr @proto_tree_add_uint(ptr noundef %36, i32 noundef %37, ptr noundef %38, i32 noundef 0, i32 noundef 0, i32 noundef %39)
  store ptr %40, ptr %14, align 8
  %41 = load ptr, ptr %14, align 8
  call void @proto_item_set_generated(ptr noundef %41)
  %42 = load i32, ptr %10, align 4
  %43 = load i32, ptr %9, align 4
  %44 = add i32 %43, %42
  store i32 %44, ptr %9, align 4
  %45 = load ptr, ptr %11, align 8
  %46 = icmp ne ptr %45, null
  br i1 %46, label %47, label %50

47:                                               ; preds = %29
  %48 = load i32, ptr %13, align 4
  %49 = load ptr, ptr %11, align 8
  store i32 %48, ptr %49, align 4
  br label %50

50:                                               ; preds = %47, %29
  %51 = load i32, ptr %9, align 4
  ret i32 %51
}