; Function Attrs: nounwind uwtable
define internal fastcc noundef i32 @dissect_ctdb_key(ptr noundef %0, ptr noundef %1, i32 noundef range(i32 56, 61) %2, i32 noundef %3, ptr noundef writeonly %4, i32 noundef range(i32 0, 2) %5) unnamed_addr #0 {
  %.not = icmp eq ptr %0, null
  br i1 %.not, label %12, label %7

7:                                                ; preds = %6
  %8 = load i32, ptr @hf_ctdb_key, align 4
  %9 = tail call ptr @proto_tree_add_item(ptr noundef nonnull %0, i32 noundef %8, ptr noundef %1, i32 noundef %2, i32 noundef %3, i32 noundef %5) #4
  %10 = load i32, ptr @ett_ctdb_key, align 4
  %11 = tail call ptr @proto_item_add_subtree(ptr noundef %9, i32 noundef %10) #4
  br label %12

12:                                               ; preds = %7, %6
  %.021 = phi ptr [ %9, %7 ], [ null, %6 ]
  %.0 = phi ptr [ %11, %7 ], [ null, %6 ]
  %.not.i = icmp eq i32 %3, 0
  br i1 %.not.i, label %ctdb_hash.exit, label %.lr.ph.i.preheader

.lr.ph.i.preheader:                               ; preds = %12
  %13 = mul i32 %3, 596579247
  br label %.lr.ph.i

.lr.ph.i:                                         ; preds = %.lr.ph.i.preheader, %.lr.ph.i
  %.011.i = phi i32 [ %21, %.lr.ph.i ], [ 0, %.lr.ph.i.preheader ]
  %.0910.i = phi i32 [ %20, %.lr.ph.i ], [ %13, %.lr.ph.i.preheader ]
  %14 = add i32 %.011.i, %2
  %15 = tail call zeroext i8 @tvb_get_guint8(ptr noundef %1, i32 noundef %14) #4
  %16 = zext i8 %15 to i32
  %17 = mul i32 %.011.i, 5
  %18 = urem i32 %17, 24
  %19 = shl nuw nsw i32 %16, %18
  %20 = add i32 %19, %.0910.i
  %21 = add nuw i32 %.011.i, 1
  %exitcond.not.i = icmp eq i32 %21, %3
  br i1 %exitcond.not.i, label %ctdb_hash.exit.loopexit, label %.lr.ph.i, !llvm.loop !6

ctdb_hash.exit.loopexit:                          ; preds = %.lr.ph.i
  %22 = mul i32 %20, 1103515243
  %23 = add i32 %22, 12345
  br label %ctdb_hash.exit

ctdb_hash.exit:                                   ; preds = %ctdb_hash.exit.loopexit, %12
  %.09.lcssa.i = phi i32 [ 12345, %12 ], [ %23, %ctdb_hash.exit.loopexit ]
  tail call void (ptr, ptr, ...) @proto_item_append_text(ptr noundef %.021, ptr noundef nonnull @.str.252, i32 noundef %.09.lcssa.i) #4
  %24 = load i32, ptr @hf_ctdb_keyhash, align 4
  %25 = tail call ptr @proto_tree_add_uint(ptr noundef %.0, i32 noundef %24, ptr noundef %1, i32 noundef 0, i32 noundef 0, i32 noundef %.09.lcssa.i) #4
  %.not.i25 = icmp eq ptr %25, null
  br i1 %.not.i25, label %proto_item_set_generated.exit, label %26

26:                                               ; preds = %ctdb_hash.exit
  %27 = getelementptr inbounds nuw i8, ptr %25, i64 32
  %28 = load ptr, ptr %27, align 8
  %.not5.i = icmp eq ptr %28, null
  br i1 %.not5.i, label %proto_item_set_generated.exit, label %29

29:                                               ; preds = %26
  %30 = getelementptr inbounds nuw i8, ptr %28, i64 28
  %31 = load i32, ptr %30, align 4
  %32 = or i32 %31, 2
  store i32 %32, ptr %30, align 4
  br label %proto_item_set_generated.exit

proto_item_set_generated.exit:                    ; preds = %ctdb_hash.exit, %26, %29
  %.not24 = icmp eq ptr %4, null
  br i1 %.not24, label %34, label %33

33:                                               ; preds = %proto_item_set_generated.exit
  store i32 %.09.lcssa.i, ptr %4, align 4
  br label %34

34:                                               ; preds = %33, %proto_item_set_generated.exit
  %35 = add i32 %3, %2
  ret i32 %35
}